target datalayout = "e-m:e-p270:32:32-p271:32:32-p272:64:64-i64:64-i128:128-f80:128-n8:16:32:64-S128"
target triple = "x86_64-pc-linux-gnu"

%struct.expert_field = type { i32, i32 }

@syntax_table = internal global ptr null, align 8
@ber_syntax_dissector_table = internal global ptr null, align 8
@ber_oid_dissector_table = internal global ptr null, align 8
@ei_ber_no_oid = internal global %struct.expert_field zeroinitializer, align 4
@ei_ber_syntax_not_implemented = internal global %struct.expert_field zeroinitializer, align 4
@.str.4 = private unnamed_addr constant [102 x i8] c"BER: Dissector for syntax:%s not implemented. Contact Wireshark developers if you want this supported\00", align 1
@ei_ber_oid_not_implemented = internal global %struct.expert_field zeroinitializer, align 4
@decode_unexpected = internal global i8 0, align 1
@ett_ber_unknown = internal global i32 0, align 4
@hf_ber_unknown_data = internal global i32 0, align 4
@last_class = internal global i8 0, align 1
@last_pc = internal global i8 0, align 1
@last_tag = internal global i32 0, align 4

; Function Attrs: null_pointer_is_valid sspstrong uwtable
define i32 @dissect_unknown_ber(ptr noundef %0, ptr noundef %1, i32 noundef %2, ptr noundef %3) #0 {
  %5 = alloca ptr, align 8
  %6 = alloca ptr, align 8
  %7 = alloca i32, align 4
  %8 = alloca ptr, align 8
  store ptr %0, ptr %5, align 8
  store ptr %1, ptr %6, align 8
  store i32 %2, ptr %7, align 4
  store ptr %3, ptr %8, align 8
  %9 = load ptr, ptr %5, align 8
  %10 = load ptr, ptr %6, align 8
  %11 = load i32, ptr %7, align 4
  %12 = load ptr, ptr %8, align 8
  %13 = call i32 @try_dissect_unknown_ber(ptr noundef %9, ptr noundef %10, i32 noundef %11, ptr noundef %12, i32 noundef 1)
  ret i32 %13
}

; Function Attrs: null_pointer_is_valid sspstrong uwtable
define i32 @get_ber_length(ptr noundef %0, i32 noundef %1, ptr noundef %2, ptr noundef %3) #0 {
  %5 = alloca ptr, align 8
  %6 = alloca i32, align 4
  %7 = alloca ptr, align 8
  %8 = alloca ptr, align 8
  store ptr %0, ptr %5, align 8
  store i32 %1, ptr %6, align 4
  store ptr %2, ptr %7, align 8
  store ptr %3, ptr %8, align 8
  %9 = load ptr, ptr %5, align 8
  %10 = load i32, ptr %6, align 4
  %11 = load ptr, ptr %7, align 8
  %12 = load ptr, ptr %8, align 8
  %13 = call i32 @try_get_ber_length(ptr noundef %9, i32 noundef %10, ptr noundef %11, ptr noundef %12, i32 noundef 1)
  ret i32 %13
}

; Function Attrs: null_pointer_is_valid sspstrong uwtable
define i32 @get_ber_identifier(ptr noundef %0, i32 noundef %1, ptr noundef %2, ptr noundef %3, ptr noundef %4) #0 {
  %6 = alloca ptr, align 8
  %7 = alloca i32, align 4
  %8 = alloca ptr, align 8
  %9 = alloca ptr, align 8
  %10 = alloca ptr, align 8
  %11 = alloca i8, align 1
  %12 = alloca i8, align 1
  %13 = alloca i8, align 1
  %14 = alloca i8, align 1
  %15 = alloca i32, align 4
  store ptr %0, ptr %6, align 8
  store i32 %1, ptr %7, align 4
  store ptr %2, ptr %8, align 8
  store ptr %3, ptr %9, align 8
  store ptr %4, ptr %10, align 8
  call void @llvm.lifetime.start.p0(i64 1, ptr %11) #12
  call void @llvm.lifetime.start.p0(i64 1, ptr %12) #12
  call void @llvm.lifetime.start.p0(i64 1, ptr %13) #12
  call void @llvm.lifetime.start.p0(i64 1, ptr %14) #12
  call void @llvm.lifetime.start.p0(i64 4, ptr %15) #12
  %16 = load ptr, ptr %6, align 8
  %17 = load i32, ptr %7, align 4
  %18 = call zeroext i8 @tvb_get_uint8(ptr noundef %16, i32 noundef %17)
  store i8 %18, ptr %11, align 1
  %19 = load i32, ptr %7, align 4
  %20 = add i32 %19, 1
  store i32 %20, ptr %7, align 4
  %21 = load i8, ptr %11, align 1
  %22 = zext i8 %21 to i32
  %23 = ashr i32 %22, 6
  %24 = and i32 %23, 3
  %25 = trunc i32 %24 to i8
  store i8 %25, ptr %13, align 1
  %26 = load i8, ptr %11, align 1
  %27 = zext i8 %26 to i32
  %28 = ashr i32 %27, 5
  %29 = and i32 %28, 1
  %30 = icmp ne i32 %29, 0
  %31 = zext i1 %30 to i8
  store i8 %31, ptr %14, align 1
  %32 = load i8, ptr %11, align 1
  %33 = zext i8 %32 to i32
  %34 = and i32 %33, 31
  store i32 %34, ptr %15, align 4
  %35 = load i32, ptr %15, align 4
  %36 = icmp eq i32 %35, 31
  br i1 %36, label %37, label %63

37:                                               ; preds = %5
  store i32 0, ptr %15, align 4
  br label %38

38:                                               ; preds = %61, %37
  %39 = load ptr, ptr %6, align 8
  %40 = load i32, ptr %7, align 4
  %41 = call i32 @tvb_reported_length_remaining(ptr noundef %39, i32 noundef %40)
  %42 = icmp sgt i32 %41, 0
  br i1 %42, label %43, label %62

43:                                               ; preds = %38
  %44 = load ptr, ptr %6, align 8
  %45 = load i32, ptr %7, align 4
  %46 = call zeroext i8 @tvb_get_uint8(ptr noundef %44, i32 noundef %45)
  store i8 %46, ptr %12, align 1
  %47 = load i32, ptr %7, align 4
  %48 = add i32 %47, 1
  store i32 %48, ptr %7, align 4
  %49 = load i32, ptr %15, align 4
  %50 = shl i32 %49, 7
  store i32 %50, ptr %15, align 4
  %51 = load i8, ptr %12, align 1
  %52 = zext i8 %51 to i32
  %53 = and i32 %52, 127
  %54 = load i32, ptr %15, align 4
  %55 = or i32 %54, %53
  store i32 %55, ptr %15, align 4
  %56 = load i8, ptr %12, align 1
  %57 = zext i8 %56 to i32
  %58 = and i32 %57, 128
  %59 = icmp ne i32 %58, 0
  br i1 %59, label %61, label %60

60:                                               ; preds = %43
  br label %62

61:                                               ; preds = %43
  br label %38, !llvm.loop !13

62:                                               ; preds = %60, %38
  br label %63

63:                                               ; preds = %62, %5
  %64 = load ptr, ptr %8, align 8
  %65 = icmp ne ptr %64, null
  br i1 %65, label %66, label %69

66:                                               ; preds = %63
  %67 = load i8, ptr %13, align 1
  %68 = load ptr, ptr %8, align 8
  store i8 %67, ptr %68, align 1
  br label %69

69:                                               ; preds = %66, %63
  %70 = load ptr, ptr %9, align 8
  %71 = icmp ne ptr %70, null
  br i1 %71, label %72, label %77

72:                                               ; preds = %69
  %73 = load i8, ptr %14, align 1, !range !6, !noundef !7
  %74 = trunc i8 %73 to i1
  %75 = load ptr, ptr %9, align 8
  %76 = zext i1 %74 to i8
  store i8 %76, ptr %75, align 1
  br label %77

77:                                               ; preds = %72, %69
  %78 = load ptr, ptr %10, align 8
  %79 = icmp ne ptr %78, null
  br i1 %79, label %80, label %83

80:                                               ; preds = %77
  %81 = load i32, ptr %15, align 4
  %82 = load ptr, ptr %10, align 8
  store i32 %81, ptr %82, align 4
  br label %83

83:                                               ; preds = %80, %77
  %84 = load i8, ptr %13, align 1
  store i8 %84, ptr @last_class, align 1
  %85 = load i8, ptr %14, align 1, !range !6, !noundef !7
  %86 = trunc i8 %85 to i1
  %87 = zext i1 %86 to i8
  store i8 %87, ptr @last_pc, align 1
  %88 = load i32, ptr %15, align 4
  store i32 %88, ptr @last_tag, align 4
  %89 = load i32, ptr %7, align 4
  call void @llvm.lifetime.end.p0(i64 4, ptr %15) #12
  call void @llvm.lifetime.end.p0(i64 1, ptr %14) #12
  call void @llvm.lifetime.end.p0(i64 1, ptr %13) #12
  call void @llvm.lifetime.end.p0(i64 1, ptr %12) #12
  call void @llvm.lifetime.end.p0(i64 1, ptr %11) #12
  ret i32 %89
}

; Function Attrs: null_pointer_is_valid sspstrong uwtable
define internal ptr @get_ber_oid_syntax(ptr noundef %0) #0 {
  %2 = alloca ptr, align 8
  store ptr %0, ptr %2, align 8
  %3 = load ptr, ptr @syntax_table, align 8
  %4 = load ptr, ptr %2, align 8
  %5 = call ptr @g_hash_table_lookup(ptr noundef %3, ptr noundef %4)
  ret ptr %5
}

; Function Attrs: null_pointer_is_valid sspstrong uwtable
define i32 @call_ber_oid_callback(ptr noundef %0, ptr noundef %1, i32 noundef %2, ptr noundef %3, ptr noundef %4, ptr noundef %5) #0 {
  %7 = alloca i32, align 4
  %8 = alloca ptr, align 8
  %9 = alloca ptr, align 8
  %10 = alloca i32, align 4
  %11 = alloca ptr, align 8
  %12 = alloca ptr, align 8
  %13 = alloca ptr, align 8
  %14 = alloca ptr, align 8
  %15 = alloca ptr, align 8
  %16 = alloca i32, align 4
  %17 = alloca i32, align 4
  %18 = alloca ptr, align 8
  %19 = alloca ptr, align 8
  %20 = alloca i32, align 4
  %21 = alloca i32, align 4
  %22 = alloca i32, align 4
  store ptr %0, ptr %8, align 8
  store ptr %1, ptr %9, align 8
  store i32 %2, ptr %10, align 4
  store ptr %3, ptr %11, align 8
  store ptr %4, ptr %12, align 8
  store ptr %5, ptr %13, align 8
  call void @llvm.lifetime.start.p0(i64 8, ptr %14) #12
  call void @llvm.lifetime.start.p0(i64 8, ptr %15) #12
  store ptr null, ptr %15, align 8
  call void @llvm.lifetime.start.p0(i64 4, ptr %16) #12
  store i32 0, ptr %16, align 4
  %23 = load ptr, ptr %9, align 8
  %24 = icmp ne ptr %23, null
  br i1 %24, label %27, label %25

25:                                               ; preds = %6
  %26 = load i32, ptr %10, align 4
  store i32 %26, ptr %7, align 4
  store i32 1, ptr %17, align 4
  br label %133

27:                                               ; preds = %6
  %28 = load ptr, ptr %9, align 8
  %29 = load i32, ptr %10, align 4
  %30 = call ptr @tvb_new_subset_remaining(ptr noundef %28, i32 noundef %29)
  store ptr %30, ptr %14, align 8
  %31 = load ptr, ptr %8, align 8
  %32 = icmp eq ptr %31, null
  br i1 %32, label %55, label %33

33:                                               ; preds = %27
  %34 = load ptr, ptr %8, align 8
  %35 = call ptr @get_ber_oid_syntax(ptr noundef %34)
  store ptr %35, ptr %15, align 8
  %36 = icmp eq ptr %35, null
  br i1 %36, label %46, label %37

37:                                               ; preds = %33
  %38 = load ptr, ptr @ber_syntax_dissector_table, align 8
  %39 = load ptr, ptr %15, align 8
  %40 = load ptr, ptr %14, align 8
  %41 = load ptr, ptr %11, align 8
  %42 = load ptr, ptr %12, align 8
  %43 = load ptr, ptr %13, align 8
  %44 = call i32 @dissector_try_string_with_data(ptr noundef %38, ptr noundef %39, ptr noundef %40, ptr noundef %41, ptr noundef %42, i1 noundef zeroext true, ptr noundef %43)
  store i32 %44, ptr %16, align 4
  %45 = icmp eq i32 %44, 0
  br i1 %45, label %46, label %128

46:                                               ; preds = %37, %33
  %47 = load ptr, ptr @ber_oid_dissector_table, align 8
  %48 = load ptr, ptr %8, align 8
  %49 = load ptr, ptr %14, align 8
  %50 = load ptr, ptr %11, align 8
  %51 = load ptr, ptr %12, align 8
  %52 = load ptr, ptr %13, align 8
  %53 = call i32 @dissector_try_string_with_data(ptr noundef %47, ptr noundef %48, ptr noundef %49, ptr noundef %50, ptr noundef %51, i1 noundef zeroext true, ptr noundef %52)
  store i32 %53, ptr %16, align 4
  %54 = icmp eq i32 %53, 0
  br i1 %54, label %55, label %128

55:                                               ; preds = %46, %27
  call void @llvm.lifetime.start.p0(i64 8, ptr %18) #12
  store ptr null, ptr %18, align 8
  call void @llvm.lifetime.start.p0(i64 8, ptr %19) #12
  store ptr null, ptr %19, align 8
  call void @llvm.lifetime.start.p0(i64 4, ptr %20) #12
  %56 = load ptr, ptr %9, align 8
  %57 = load i32, ptr %10, align 4
  %58 = call i32 @tvb_reported_length_remaining(ptr noundef %56, i32 noundef %57)
  store i32 %58, ptr %20, align 4
  %59 = load ptr, ptr %8, align 8
  %60 = icmp eq ptr %59, null
  br i1 %60, label %61, label %67

61:                                               ; preds = %55
  %62 = load ptr, ptr %12, align 8
  %63 = load ptr, ptr %11, align 8
  %64 = load ptr, ptr %14, align 8
  %65 = load i32, ptr %20, align 4
  %66 = call ptr @proto_tree_add_expert(ptr noundef %62, ptr noundef %63, ptr noundef @ei_ber_no_oid, ptr noundef %64, i32 noundef 0, i32 noundef %65)
  store ptr %66, ptr %18, align 8
  br label %93

67:                                               ; preds = %55
  %68 = load ptr, ptr %9, align 8
  %69 = load i32, ptr %10, align 4
  %70 = call zeroext i16 @tvb_get_ntohs(ptr noundef %68, i32 noundef %69)
  %71 = zext i16 %70 to i32
  %72 = icmp ne i32 %71, 1280
  br i1 %72, label %73, label %90

73:                                               ; preds = %67
  %74 = load ptr, ptr %15, align 8
  %75 = icmp ne ptr %74, null
  br i1 %75, label %76, label %83

76:                                               ; preds = %73
  %77 = load ptr, ptr %12, align 8
  %78 = load ptr, ptr %11, align 8
  %79 = load ptr, ptr %14, align 8
  %80 = load i32, ptr %20, align 4
  %81 = load ptr, ptr %15, align 8
  %82 = call ptr (ptr, ptr, ptr, ptr, i32, i32, ptr, ...) @proto_tree_add_expert_format(ptr noundef %77, ptr noundef %78, ptr noundef @ei_ber_syntax_not_implemented, ptr noundef %79, i32 noundef 0, i32 noundef %80, ptr noundef @.str.4, ptr noundef %81)
  store ptr %82, ptr %18, align 8
  br label %89

83:                                               ; preds = %73
  %84 = load ptr, ptr %12, align 8
  %85 = load ptr, ptr %11, align 8
  %86 = load ptr, ptr %14, align 8
  %87 = load i32, ptr %20, align 4
  %88 = call ptr @proto_tree_add_expert(ptr noundef %84, ptr noundef %85, ptr noundef @ei_ber_oid_not_implemented, ptr noundef %86, i32 noundef 0, i32 noundef %87)
  store ptr %88, ptr %18, align 8
  br label %89

89:                                               ; preds = %83, %76
  br label %92

90:                                               ; preds = %67
  %91 = load ptr, ptr %12, align 8
  store ptr %91, ptr %19, align 8
  br label %92

92:                                               ; preds = %90, %89
  br label %93

93:                                               ; preds = %92, %61
  %94 = load i8, ptr @decode_unexpected, align 1, !range !6, !noundef !7
  %95 = trunc i8 %94 to i1
  br i1 %95, label %96, label %126

96:                                               ; preds = %93
  call void @llvm.lifetime.start.p0(i64 4, ptr %21) #12
  call void @llvm.lifetime.start.p0(i64 4, ptr %22) #12
  %97 = load ptr, ptr %18, align 8
  %98 = icmp ne ptr %97, null
  br i1 %98, label %99, label %103

99:                                               ; preds = %96
  %100 = load ptr, ptr %18, align 8
  %101 = load i32, ptr @ett_ber_unknown, align 4
  %102 = call ptr @proto_item_add_subtree(ptr noundef %100, i32 noundef %101)
  store ptr %102, ptr %19, align 8
  br label %103

103:                                              ; preds = %99, %96
  %104 = load ptr, ptr %14, align 8
  %105 = call i32 @get_ber_identifier(ptr noundef %104, i32 noundef 0, ptr noundef null, ptr noundef null, ptr noundef null)
  store i32 %105, ptr %21, align 4
  %106 = load ptr, ptr %14, align 8
  %107 = load i32, ptr %21, align 4
  %108 = call i32 @get_ber_length(ptr noundef %106, i32 noundef %107, ptr noundef %22, ptr noundef null)
  store i32 %108, ptr %21, align 4
  %109 = load i32, ptr %22, align 4
  %110 = load i32, ptr %21, align 4
  %111 = add i32 %109, %110
  %112 = load i32, ptr %20, align 4
  %113 = icmp eq i32 %111, %112
  br i1 %113, label %114, label %119

114:                                              ; preds = %103
  %115 = load ptr, ptr %11, align 8
  %116 = load ptr, ptr %14, align 8
  %117 = load ptr, ptr %19, align 8
  %118 = call i32 @dissect_unknown_ber(ptr noundef %115, ptr noundef %116, i32 noundef 0, ptr noundef %117)
  br label %125

119:                                              ; preds = %103
  %120 = load ptr, ptr %19, align 8
  %121 = load i32, ptr @hf_ber_unknown_data, align 4
  %122 = load ptr, ptr %14, align 8
  %123 = load i32, ptr %20, align 4
  %124 = call ptr @proto_tree_add_item(ptr noundef %120, i32 noundef %121, ptr noundef %122, i32 noundef 0, i32 noundef %123, i32 noundef 0)
  br label %125

125:                                              ; preds = %119, %114
  call void @llvm.lifetime.end.p0(i64 4, ptr %22) #12
  call void @llvm.lifetime.end.p0(i64 4, ptr %21) #12
  br label %126

126:                                              ; preds = %125, %93
  %127 = load i32, ptr %20, align 4
  store i32 %127, ptr %16, align 4
  call void @llvm.lifetime.end.p0(i64 4, ptr %20) #12
  call void @llvm.lifetime.end.p0(i64 8, ptr %19) #12
  call void @llvm.lifetime.end.p0(i64 8, ptr %18) #12
  br label %128

128:                                              ; preds = %126, %46, %37
  %129 = load i32, ptr %16, align 4
  %130 = load i32, ptr %10, align 4
  %131 = add i32 %130, %129
  store i32 %131, ptr %10, align 4
  %132 = load i32, ptr %10, align 4
  store i32 %132, ptr %7, align 4
  store i32 1, ptr %17, align 4
  br label %133

133:                                              ; preds = %128, %25
  call void @llvm.lifetime.end.p0(i64 4, ptr %16) #12
  call void @llvm.lifetime.end.p0(i64 8, ptr %15) #12
  call void @llvm.lifetime.end.p0(i64 8, ptr %14) #12
  %134 = load i32, ptr %7, align 4
  ret i32 %134
}