; Function Attrs: null_pointer_is_valid sspstrong uwtable
define i32 @call_ber_oid_callback(ptr noundef %0, ptr noundef %1, i32 noundef %2, ptr noundef %3, ptr noundef %4, ptr noundef %5) local_unnamed_addr #0 {
  %7 = alloca i32, align 4
  %.not = icmp eq ptr %1, null
  br i1 %.not, label %73, label %8

8:                                                ; preds = %6
  %9 = tail call ptr @tvb_new_subset_remaining(ptr noundef nonnull %1, i32 noundef %2)
  %10 = icmp eq ptr %0, null
  br i1 %10, label %23, label %11

11:                                               ; preds = %8
  %12 = load ptr, ptr @syntax_table, align 8
  %13 = tail call ptr @g_hash_table_lookup(ptr noundef %12, ptr noundef nonnull %0)
  %14 = icmp eq ptr %13, null
  br i1 %14, label %19, label %15

15:                                               ; preds = %11
  %16 = load ptr, ptr @ber_syntax_dissector_table, align 8
  %17 = tail call i32 @dissector_try_string_with_data(ptr noundef %16, ptr noundef nonnull %13, ptr noundef %9, ptr noundef %3, ptr noundef %4, i1 noundef zeroext true, ptr noundef %5)
  %18 = icmp eq i32 %17, 0
  br i1 %18, label %19, label %71

19:                                               ; preds = %15, %11
  %20 = load ptr, ptr @ber_oid_dissector_table, align 8
  %21 = tail call i32 @dissector_try_string_with_data(ptr noundef %20, ptr noundef nonnull %0, ptr noundef %9, ptr noundef %3, ptr noundef %4, i1 noundef zeroext true, ptr noundef %5)
  %22 = icmp eq i32 %21, 0
  br i1 %22, label %26, label %71

23:                                               ; preds = %8
  %24 = tail call i32 @tvb_reported_length_remaining(ptr noundef nonnull %1, i32 noundef %2)
  %25 = tail call ptr @proto_tree_add_expert(ptr noundef %4, ptr noundef %3, ptr noundef nonnull @ei_ber_no_oid, ptr noundef %9, i32 noundef 0, i32 noundef %24)
  br label %34

26:                                               ; preds = %19
  %27 = tail call i32 @tvb_reported_length_remaining(ptr noundef nonnull %1, i32 noundef %2)
  %28 = tail call zeroext i16 @tvb_get_ntohs(ptr noundef nonnull %1, i32 noundef %2)
  %.not63 = icmp eq i16 %28, 1280
  br i1 %.not63, label %.thread67, label %29

29:                                               ; preds = %26
  br i1 %14, label %32, label %30

30:                                               ; preds = %29
  %31 = tail call ptr (ptr, ptr, ptr, ptr, i32, i32, ptr, ...) @proto_tree_add_expert_format(ptr noundef %4, ptr noundef %3, ptr noundef nonnull @ei_ber_syntax_not_implemented, ptr noundef %9, i32 noundef 0, i32 noundef %27, ptr noundef nonnull @.str.4, ptr noundef nonnull %13)
  br label %34

32:                                               ; preds = %29
  %33 = tail call ptr @proto_tree_add_expert(ptr noundef %4, ptr noundef %3, ptr noundef nonnull @ei_ber_oid_not_implemented, ptr noundef %9, i32 noundef 0, i32 noundef %27)
  br label %34

34:                                               ; preds = %32, %30, %23
  %35 = phi i32 [ %24, %23 ], [ %27, %30 ], [ %27, %32 ]
  %.054 = phi ptr [ %25, %23 ], [ %31, %30 ], [ %33, %32 ]
  %36 = load i8, ptr @decode_unexpected, align 1, !range !8, !noundef !9
  %37 = trunc nuw i8 %36 to i1
  br i1 %37, label %40, label %71

.thread67:                                        ; preds = %26
  %38 = load i8, ptr @decode_unexpected, align 1, !range !8, !noundef !9
  %39 = trunc nuw i8 %38 to i1
  br i1 %39, label %.thread72, label %71

.thread72:                                        ; preds = %.thread67
  call void @llvm.lifetime.start.p0(i64 4, ptr nonnull %7) #14
  br label %44

40:                                               ; preds = %34
  call void @llvm.lifetime.start.p0(i64 4, ptr nonnull %7) #14
  %.not65 = icmp eq ptr %.054, null
  br i1 %.not65, label %44, label %41

41:                                               ; preds = %40
  %42 = load i32, ptr @ett_ber_unknown, align 4
  %43 = tail call ptr @proto_item_add_subtree(ptr noundef nonnull %.054, i32 noundef %42)
  br label %44

44:                                               ; preds = %.thread72, %41, %40
  %45 = phi i32 [ %35, %41 ], [ %35, %40 ], [ %27, %.thread72 ]
  %.1 = phi ptr [ %43, %41 ], [ null, %40 ], [ %4, %.thread72 ]
  %46 = tail call zeroext i8 @tvb_get_uint8(ptr noundef %9, i32 noundef 0)
  %47 = lshr i8 %46, 6
  %48 = lshr i8 %46, 5
  %.lobit.i = and i8 %48, 1
  %49 = and i8 %46, 31
  %50 = zext nneg i8 %49 to i32
  %51 = icmp eq i8 %49, 31
  br i1 %51, label %.preheader.i, label %get_ber_identifier.exit

.preheader.i:                                     ; preds = %44, %54
  %.129.i = phi i32 [ %56, %54 ], [ 1, %44 ]
  %.1.i = phi i32 [ %60, %54 ], [ 0, %44 ]
  %52 = tail call i32 @tvb_reported_length_remaining(ptr noundef %9, i32 noundef %.129.i)
  %53 = icmp sgt i32 %52, 0
  br i1 %53, label %54, label %get_ber_identifier.exit

54:                                               ; preds = %.preheader.i
  %55 = tail call zeroext i8 @tvb_get_uint8(ptr noundef %9, i32 noundef %.129.i)
  %56 = add i32 %.129.i, 1
  %57 = shl i32 %.1.i, 7
  %58 = and i8 %55, 127
  %59 = zext nneg i8 %58 to i32
  %60 = or disjoint i32 %57, %59
  %.not.i = icmp sgt i8 %55, -1
  br i1 %.not.i, label %get_ber_identifier.exit, label %.preheader.i, !llvm.loop !6

get_ber_identifier.exit:                          ; preds = %.preheader.i, %54, %44
  %.028.i = phi i32 [ 1, %44 ], [ %56, %54 ], [ %.129.i, %.preheader.i ]
  %.0.i = phi i32 [ %50, %44 ], [ %60, %54 ], [ %.1.i, %.preheader.i ]
  store i8 %47, ptr @last_class, align 1
  store i8 %.lobit.i, ptr @last_pc, align 1
  store i32 %.0.i, ptr @last_tag, align 4
  %61 = call fastcc noundef i32 @try_get_ber_length(ptr noundef %9, i32 noundef %.028.i, ptr noundef nonnull %7, ptr noundef null, i32 noundef 1)
  %62 = load i32, ptr %7, align 4
  %63 = add i32 %62, %61
  %64 = icmp eq i32 %63, %45
  br i1 %64, label %65, label %67

65:                                               ; preds = %get_ber_identifier.exit
  %66 = call fastcc i32 @try_dissect_unknown_ber(ptr noundef %3, ptr noundef %9, i32 noundef 0, ptr noundef %.1, i32 noundef 1)
  br label %70

67:                                               ; preds = %get_ber_identifier.exit
  %68 = load i32, ptr @hf_ber_unknown_data, align 4
  %69 = call ptr @proto_tree_add_item(ptr noundef %.1, i32 noundef %68, ptr noundef %9, i32 noundef 0, i32 noundef %45, i32 noundef 0)
  br label %70

70:                                               ; preds = %67, %65
  call void @llvm.lifetime.end.p0(i64 4, ptr nonnull %7) #14
  br label %71

71:                                               ; preds = %.thread67, %34, %70, %19, %15
  %.055 = phi i32 [ %21, %19 ], [ %17, %15 ], [ %45, %70 ], [ %35, %34 ], [ %27, %.thread67 ]
  %72 = add i32 %.055, %2
  br label %73

73:                                               ; preds = %6, %71
  %.0 = phi i32 [ %72, %71 ], [ %2, %6 ]
  ret i32 %.0
}